target datalayout = "e-m:e-p270:32:32-p271:32:32-p272:64:64-i64:64-i128:128-f80:128-n8:16:32:64-S128"
target triple = "x86_64-pc-linux-gnu"

%struct.archive_read = type { %struct.archive, ptr, i32, i64, i64, %struct.archive_read_client, [16 x %struct.archive_read_filter_bidder], ptr, i32, i64, i32, i32, [16 x %struct.archive_format_descriptor], ptr, ptr, ptr, %struct.anon }
%struct.archive = type { i32, i32, ptr, i32, ptr, i32, i32, ptr, %struct.archive_string, ptr, i32, i32, ptr, ptr, i64, i64, i64, i8, i64 }
%struct.archive_string = type { ptr, i64, i64 }
%struct.archive_read_client = type { ptr, ptr, ptr, ptr, ptr, ptr, i32, i32, i64, ptr }
%struct.archive_read_filter_bidder = type { ptr, ptr, ptr }
%struct.archive_format_descriptor = type { ptr, ptr, ptr, ptr, ptr, ptr, ptr, ptr, ptr, ptr, ptr }
%struct.anon = type { ptr, ptr, i32, ptr, ptr }
%struct._7zip = type { %struct._7z_stream_info, i32, i32, i64, i64, i64, i64, i64, i64, ptr, ptr, ptr, i64, i64, i64, i8, ptr, ptr, i64, i64, i64, i32, i64, i32, i32, i64, i64, i64, i64, %struct.lzma_stream, i32, %struct.bz_stream, i32, %struct.z_stream_s, i32, ptr, i32, i32, %struct.CPpmd7, %struct.CPpmd7z_RangeDec, %struct.IByteIn, %struct.anon.0, i32, i32, i64, [4 x i8], i64, i32, i32, i64, [3 x ptr], [3 x i64], [3 x i64], ptr, i64, i64, i64, [258 x i16], i8, i32, i32, i64, ptr, [64 x i8], i32 }
%struct._7z_stream_info = type { %struct._7z_pack_info, %struct._7z_coders_info, %struct._7z_substream_info }
%struct._7z_pack_info = type { i64, i64, ptr, %struct._7z_digests, ptr }
%struct._7z_digests = type { ptr, ptr }
%struct._7z_coders_info = type { i64, ptr, i64 }
%struct._7z_substream_info = type { i64, ptr, ptr, ptr }
%struct.lzma_stream = type { ptr, i64, i64, ptr, i64, i64, ptr, ptr, ptr, ptr, ptr, ptr, i64, i64, i64, i64, i32, i32 }
%struct.bz_stream = type { ptr, i32, i32, i32, ptr, i32, i32, i32, ptr, ptr, ptr, ptr }
%struct.z_stream_s = type { ptr, i32, i64, ptr, i32, i64, ptr, ptr, ptr, ptr, ptr, i32, i64, i64 }
%struct.CPpmd7 = type { ptr, ptr, ptr, i32, i32, i32, i32, i32, i32, i32, i32, i32, ptr, ptr, ptr, ptr, ptr, i32, [38 x i8], [128 x i8], [38 x i32], [256 x i8], [256 x i8], [256 x i8], %struct.CPpmd_See, [25 x [16 x %struct.CPpmd_See]], [128 x [64 x i16]] }
%struct.CPpmd_See = type { i16, i8, i8 }
%struct.CPpmd7z_RangeDec = type { %struct.IPpmd7_RangeDec, i32, i32, i32, i32, ptr }
%struct.IPpmd7_RangeDec = type { ptr, ptr, ptr }
%struct.IByteIn = type { ptr, ptr }
%struct.anon.0 = type { ptr, i64, i64, i64, ptr, i64, i64, i32 }
%struct._7zip_entry = type { i64, ptr, i32, i32, i32, i64, i64, i64, i64, i64, i64, i32, i32 }

@.str.17 = private unnamed_addr constant [26 x i8] c"Truncated 7-Zip file body\00", align 1
@.str.61 = private unnamed_addr constant [37 x i8] c"7-Zip bad CRC: 0x%lx should be 0x%lx\00", align 1

; Function Attrs: nounwind uwtable
define internal void @read_consume(ptr noundef %0) #0 {
  %2 = alloca ptr, align 8
  %3 = alloca ptr, align 8
  store ptr %0, ptr %2, align 8, !tbaa !9
  call void @llvm.lifetime.start.p0(i64 8, ptr %3) #12
  %4 = load ptr, ptr %2, align 8, !tbaa !9
  %5 = getelementptr inbounds nuw %struct.archive_read, ptr %4, i32 0, i32 13
  %6 = load ptr, ptr %5, align 8, !tbaa !51
  %7 = getelementptr inbounds nuw %struct.archive_format_descriptor, ptr %6, i32 0, i32 0
  %8 = load ptr, ptr %7, align 8, !tbaa !64
  store ptr %8, ptr %3, align 8, !tbaa !13
  %9 = load ptr, ptr %3, align 8, !tbaa !13
  %10 = getelementptr inbounds nuw %struct._7zip, ptr %9, i32 0, i32 26
  %11 = load i64, ptr %10, align 8, !tbaa !107
  %12 = icmp ne i64 %11, 0
  br i1 %12, label %13, label %28

13:                                               ; preds = %1
  %14 = load ptr, ptr %2, align 8, !tbaa !9
  %15 = load ptr, ptr %3, align 8, !tbaa !13
  %16 = getelementptr inbounds nuw %struct._7zip, ptr %15, i32 0, i32 26
  %17 = load i64, ptr %16, align 8, !tbaa !107
  %18 = call i64 @__archive_read_consume(ptr noundef %14, i64 noundef %17)
  %19 = load ptr, ptr %3, align 8, !tbaa !13
  %20 = getelementptr inbounds nuw %struct._7zip, ptr %19, i32 0, i32 26
  %21 = load i64, ptr %20, align 8, !tbaa !107
  %22 = load ptr, ptr %3, align 8, !tbaa !13
  %23 = getelementptr inbounds nuw %struct._7zip, ptr %22, i32 0, i32 20
  %24 = load i64, ptr %23, align 8, !tbaa !115
  %25 = add i64 %24, %21
  store i64 %25, ptr %23, align 8, !tbaa !115
  %26 = load ptr, ptr %3, align 8, !tbaa !13
  %27 = getelementptr inbounds nuw %struct._7zip, ptr %26, i32 0, i32 26
  store i64 0, ptr %27, align 8, !tbaa !107
  br label %28

28:                                               ; preds = %13, %1
  call void @llvm.lifetime.end.p0(i64 8, ptr %3) #12
  ret void
}

; Function Attrs: nounwind uwtable
define internal i32 @archive_read_format_7zip_read_data(ptr noundef %0, ptr noundef %1, ptr noundef %2, ptr noundef %3) #0 {
  %5 = alloca i32, align 4
  %6 = alloca ptr, align 8
  %7 = alloca ptr, align 8
  %8 = alloca ptr, align 8
  %9 = alloca ptr, align 8
  %10 = alloca ptr, align 8
  %11 = alloca i64, align 8
  %12 = alloca i32, align 4
  %13 = alloca i32, align 4
  %14 = alloca i64, align 8
  store ptr %0, ptr %6, align 8, !tbaa !9
  store ptr %1, ptr %7, align 8, !tbaa !103
  store ptr %2, ptr %8, align 8, !tbaa !106
  store ptr %3, ptr %9, align 8, !tbaa !106
  call void @llvm.lifetime.start.p0(i64 8, ptr %10) #12
  call void @llvm.lifetime.start.p0(i64 8, ptr %11) #12
  call void @llvm.lifetime.start.p0(i64 4, ptr %12) #12
  store i32 0, ptr %12, align 4, !tbaa !11
  %15 = load ptr, ptr %6, align 8, !tbaa !9
  %16 = getelementptr inbounds nuw %struct.archive_read, ptr %15, i32 0, i32 13
  %17 = load ptr, ptr %16, align 8, !tbaa !51
  %18 = getelementptr inbounds nuw %struct.archive_format_descriptor, ptr %17, i32 0, i32 0
  %19 = load ptr, ptr %18, align 8, !tbaa !64
  store ptr %19, ptr %10, align 8, !tbaa !13
  %20 = load ptr, ptr %10, align 8, !tbaa !13
  %21 = getelementptr inbounds nuw %struct._7zip, ptr %20, i32 0, i32 64
  %22 = load i32, ptr %21, align 8, !tbaa !15
  %23 = icmp eq i32 %22, -1
  br i1 %23, label %24, label %27

24:                                               ; preds = %4
  %25 = load ptr, ptr %10, align 8, !tbaa !13
  %26 = getelementptr inbounds nuw %struct._7zip, ptr %25, i32 0, i32 64
  store i32 0, ptr %26, align 8, !tbaa !15
  br label %27

27:                                               ; preds = %24, %4
  %28 = load ptr, ptr %10, align 8, !tbaa !13
  %29 = getelementptr inbounds nuw %struct._7zip, ptr %28, i32 0, i32 26
  %30 = load i64, ptr %29, align 8, !tbaa !107
  %31 = icmp ne i64 %30, 0
  br i1 %31, label %32, label %34

32:                                               ; preds = %27
  %33 = load ptr, ptr %6, align 8, !tbaa !9
  call void @read_consume(ptr noundef %33)
  br label %34

34:                                               ; preds = %32, %27
  %35 = load ptr, ptr %10, align 8, !tbaa !13
  %36 = getelementptr inbounds nuw %struct._7zip, ptr %35, i32 0, i32 12
  %37 = load i64, ptr %36, align 8, !tbaa !74
  %38 = load ptr, ptr %9, align 8, !tbaa !106
  store i64 %37, ptr %38, align 8, !tbaa !45
  %39 = load ptr, ptr %8, align 8, !tbaa !106
  store i64 0, ptr %39, align 8, !tbaa !45
  %40 = load ptr, ptr %7, align 8, !tbaa !103
  store ptr null, ptr %40, align 8, !tbaa !103
  %41 = load ptr, ptr %10, align 8, !tbaa !13
  %42 = getelementptr inbounds nuw %struct._7zip, ptr %41, i32 0, i32 15
  %43 = load i8, ptr %42, align 8, !tbaa !75
  %44 = icmp ne i8 %43, 0
  br i1 %44, label %45, label %46

45:                                               ; preds = %34
  store i32 1, ptr %5, align 4
  store i32 1, ptr %13, align 4
  br label %174

46:                                               ; preds = %34
  call void @llvm.lifetime.start.p0(i64 8, ptr %14) #12
  store i64 16777216, ptr %14, align 8, !tbaa !45
  %47 = load i64, ptr %14, align 8, !tbaa !45
  %48 = load ptr, ptr %10, align 8, !tbaa !13
  %49 = getelementptr inbounds nuw %struct._7zip, ptr %48, i32 0, i32 13
  %50 = load i64, ptr %49, align 8, !tbaa !101
  %51 = icmp ugt i64 %47, %50
  br i1 %51, label %52, label %56

52:                                               ; preds = %46
  %53 = load ptr, ptr %10, align 8, !tbaa !13
  %54 = getelementptr inbounds nuw %struct._7zip, ptr %53, i32 0, i32 13
  %55 = load i64, ptr %54, align 8, !tbaa !101
  store i64 %55, ptr %14, align 8, !tbaa !45
  br label %56

56:                                               ; preds = %52, %46
  %57 = load ptr, ptr %6, align 8, !tbaa !9
  %58 = load ptr, ptr %7, align 8, !tbaa !103
  %59 = load i64, ptr %14, align 8, !tbaa !45
  %60 = call i64 @read_stream(ptr noundef %57, ptr noundef %58, i64 noundef %59, i64 noundef 0)
  store i64 %60, ptr %11, align 8, !tbaa !45
  %61 = load i64, ptr %11, align 8, !tbaa !45
  %62 = icmp slt i64 %61, 0
  br i1 %62, label %63, label %66

63:                                               ; preds = %56
  %64 = load i64, ptr %11, align 8, !tbaa !45
  %65 = trunc i64 %64 to i32
  store i32 %65, ptr %5, align 4
  store i32 1, ptr %13, align 4
  br label %173

66:                                               ; preds = %56
  %67 = load i64, ptr %11, align 8, !tbaa !45
  %68 = icmp eq i64 %67, 0
  br i1 %68, label %69, label %72

69:                                               ; preds = %66
  %70 = load ptr, ptr %6, align 8, !tbaa !9
  %71 = getelementptr inbounds nuw %struct.archive_read, ptr %70, i32 0, i32 0
  call void (ptr, i32, ptr, ...) @archive_set_error(ptr noundef %71, i32 noundef 84, ptr noundef @.str.17)
  store i32 -30, ptr %5, align 4
  store i32 1, ptr %13, align 4
  br label %173

72:                                               ; preds = %66
  %73 = load i64, ptr %11, align 8, !tbaa !45
  %74 = load ptr, ptr %10, align 8, !tbaa !13
  %75 = getelementptr inbounds nuw %struct._7zip, ptr %74, i32 0, i32 13
  %76 = load i64, ptr %75, align 8, !tbaa !101
  %77 = sub i64 %76, %73
  store i64 %77, ptr %75, align 8, !tbaa !101
  %78 = load ptr, ptr %10, align 8, !tbaa !13
  %79 = getelementptr inbounds nuw %struct._7zip, ptr %78, i32 0, i32 13
  %80 = load i64, ptr %79, align 8, !tbaa !101
  %81 = icmp eq i64 %80, 0
  br i1 %81, label %82, label %85

82:                                               ; preds = %72
  %83 = load ptr, ptr %10, align 8, !tbaa !13
  %84 = getelementptr inbounds nuw %struct._7zip, ptr %83, i32 0, i32 15
  store i8 1, ptr %84, align 8, !tbaa !75
  br label %85

85:                                               ; preds = %82, %72
  %86 = load ptr, ptr %10, align 8, !tbaa !13
  %87 = getelementptr inbounds nuw %struct._7zip, ptr %86, i32 0, i32 10
  %88 = load ptr, ptr %87, align 8, !tbaa !72
  %89 = getelementptr inbounds nuw %struct._7zip_entry, ptr %88, i32 0, i32 4
  %90 = load i32, ptr %89, align 8, !tbaa !92
  %91 = and i32 %90, 8
  %92 = icmp ne i32 %91, 0
  br i1 %92, label %93, label %107

93:                                               ; preds = %85
  %94 = load i64, ptr %11, align 8, !tbaa !45
  %95 = icmp ne i64 %94, 0
  br i1 %95, label %96, label %107

96:                                               ; preds = %93
  %97 = load ptr, ptr %10, align 8, !tbaa !13
  %98 = getelementptr inbounds nuw %struct._7zip, ptr %97, i32 0, i32 14
  %99 = load i64, ptr %98, align 8, !tbaa !76
  %100 = load ptr, ptr %7, align 8, !tbaa !103
  %101 = load ptr, ptr %100, align 8, !tbaa !103
  %102 = load i64, ptr %11, align 8, !tbaa !45
  %103 = trunc i64 %102 to i32
  %104 = call i64 @cm_zlib_crc32(i64 noundef %99, ptr noundef %101, i32 noundef %103)
  %105 = load ptr, ptr %10, align 8, !tbaa !13
  %106 = getelementptr inbounds nuw %struct._7zip, ptr %105, i32 0, i32 14
  store i64 %104, ptr %106, align 8, !tbaa !76
  br label %107

107:                                              ; preds = %96, %93, %85
  %108 = load ptr, ptr %10, align 8, !tbaa !13
  %109 = getelementptr inbounds nuw %struct._7zip, ptr %108, i32 0, i32 15
  %110 = load i8, ptr %109, align 8, !tbaa !75
  %111 = icmp ne i8 %110, 0
  br i1 %111, label %112, label %160

112:                                              ; preds = %107
  %113 = load ptr, ptr %10, align 8, !tbaa !13
  %114 = getelementptr inbounds nuw %struct._7zip, ptr %113, i32 0, i32 10
  %115 = load ptr, ptr %114, align 8, !tbaa !72
  %116 = getelementptr inbounds nuw %struct._7zip_entry, ptr %115, i32 0, i32 4
  %117 = load i32, ptr %116, align 8, !tbaa !92
  %118 = and i32 %117, 8
  %119 = icmp ne i32 %118, 0
  br i1 %119, label %120, label %159

120:                                              ; preds = %112
  %121 = load ptr, ptr %10, align 8, !tbaa !13
  %122 = getelementptr inbounds nuw %struct._7zip, ptr %121, i32 0, i32 0
  %123 = getelementptr inbounds nuw %struct._7z_stream_info, ptr %122, i32 0, i32 2
  %124 = getelementptr inbounds nuw %struct._7z_substream_info, ptr %123, i32 0, i32 3
  %125 = load ptr, ptr %124, align 8, !tbaa !108
  %126 = load ptr, ptr %10, align 8, !tbaa !13
  %127 = getelementptr inbounds nuw %struct._7zip, ptr %126, i32 0, i32 10
  %128 = load ptr, ptr %127, align 8, !tbaa !72
  %129 = getelementptr inbounds nuw %struct._7zip_entry, ptr %128, i32 0, i32 3
  %130 = load i32, ptr %129, align 4, !tbaa !99
  %131 = zext i32 %130 to i64
  %132 = getelementptr inbounds nuw i32, ptr %125, i64 %131
  %133 = load i32, ptr %132, align 4, !tbaa !11
  %134 = zext i32 %133 to i64
  %135 = load ptr, ptr %10, align 8, !tbaa !13
  %136 = getelementptr inbounds nuw %struct._7zip, ptr %135, i32 0, i32 14
  %137 = load i64, ptr %136, align 8, !tbaa !76
  %138 = icmp ne i64 %134, %137
  br i1 %138, label %139, label %159

139:                                              ; preds = %120
  %140 = load ptr, ptr %6, align 8, !tbaa !9
  %141 = getelementptr inbounds nuw %struct.archive_read, ptr %140, i32 0, i32 0
  %142 = load ptr, ptr %10, align 8, !tbaa !13
  %143 = getelementptr inbounds nuw %struct._7zip, ptr %142, i32 0, i32 14
  %144 = load i64, ptr %143, align 8, !tbaa !76
  %145 = load ptr, ptr %10, align 8, !tbaa !13
  %146 = getelementptr inbounds nuw %struct._7zip, ptr %145, i32 0, i32 0
  %147 = getelementptr inbounds nuw %struct._7z_stream_info, ptr %146, i32 0, i32 2
  %148 = getelementptr inbounds nuw %struct._7z_substream_info, ptr %147, i32 0, i32 3
  %149 = load ptr, ptr %148, align 8, !tbaa !108
  %150 = load ptr, ptr %10, align 8, !tbaa !13
  %151 = getelementptr inbounds nuw %struct._7zip, ptr %150, i32 0, i32 10
  %152 = load ptr, ptr %151, align 8, !tbaa !72
  %153 = getelementptr inbounds nuw %struct._7zip_entry, ptr %152, i32 0, i32 3
  %154 = load i32, ptr %153, align 4, !tbaa !99
  %155 = zext i32 %154 to i64
  %156 = getelementptr inbounds nuw i32, ptr %149, i64 %155
  %157 = load i32, ptr %156, align 4, !tbaa !11
  %158 = zext i32 %157 to i64
  call void (ptr, i32, ptr, ...) @archive_set_error(ptr noundef %141, i32 noundef -1, ptr noundef @.str.61, i64 noundef %144, i64 noundef %158)
  store i32 -20, ptr %12, align 4, !tbaa !11
  br label %159

159:                                              ; preds = %139, %120, %112
  br label %160

160:                                              ; preds = %159, %107
  %161 = load i64, ptr %11, align 8, !tbaa !45
  %162 = load ptr, ptr %8, align 8, !tbaa !106
  store i64 %161, ptr %162, align 8, !tbaa !45
  %163 = load ptr, ptr %10, align 8, !tbaa !13
  %164 = getelementptr inbounds nuw %struct._7zip, ptr %163, i32 0, i32 12
  %165 = load i64, ptr %164, align 8, !tbaa !74
  %166 = load ptr, ptr %9, align 8, !tbaa !106
  store i64 %165, ptr %166, align 8, !tbaa !45
  %167 = load i64, ptr %11, align 8, !tbaa !45
  %168 = load ptr, ptr %10, align 8, !tbaa !13
  %169 = getelementptr inbounds nuw %struct._7zip, ptr %168, i32 0, i32 12
  %170 = load i64, ptr %169, align 8, !tbaa !74
  %171 = add nsw i64 %170, %167
  store i64 %171, ptr %169, align 8, !tbaa !74
  %172 = load i32, ptr %12, align 4, !tbaa !11
  store i32 %172, ptr %5, align 4
  store i32 1, ptr %13, align 4
  br label %173

173:                                              ; preds = %160, %69, %63
  call void @llvm.lifetime.end.p0(i64 8, ptr %14) #12
  br label %174

174:                                              ; preds = %173, %45
  call void @llvm.lifetime.end.p0(i64 4, ptr %12) #12
  call void @llvm.lifetime.end.p0(i64 8, ptr %11) #12
  call void @llvm.lifetime.end.p0(i64 8, ptr %10) #12
  %175 = load i32, ptr %5, align 4
  ret i32 %175
}