; Function Attrs: nounwind uwtable
define internal i32 @archive_read_format_7zip_read_data(ptr noundef %0, ptr noundef captures(none) initializes((0, 8)) %1, ptr noundef writeonly captures(none) initializes((0, 8)) %2, ptr noundef writeonly captures(none) initializes((0, 8)) %3) #0 {
  %5 = getelementptr inbounds nuw i8, ptr %0, i64 2072
  %6 = load ptr, ptr %5, align 8, !tbaa !41
  %7 = load ptr, ptr %6, align 8, !tbaa !55
  %8 = getelementptr inbounds nuw i8, ptr %7, i64 20752
  %9 = load i32, ptr %8, align 8, !tbaa !4
  %10 = icmp eq i32 %9, -1
  br i1 %10, label %11, label %12

11:                                               ; preds = %4
  store i32 0, ptr %8, align 8, !tbaa !4
  br label %12

12:                                               ; preds = %11, %4
  %13 = getelementptr inbounds nuw i8, ptr %7, i64 288
  %14 = load i64, ptr %13, align 8, !tbaa !74
  %.not = icmp eq i64 %14, 0
  br i1 %.not, label %20, label %read_consume.exit

read_consume.exit:                                ; preds = %12
  %15 = tail call i64 @__archive_read_consume(ptr noundef nonnull %0, i64 noundef %14) #17
  %16 = load i64, ptr %13, align 8, !tbaa !74
  %17 = getelementptr inbounds nuw i8, ptr %7, i64 248
  %18 = load i64, ptr %17, align 8, !tbaa !63
  %19 = add i64 %18, %16
  store i64 %19, ptr %17, align 8, !tbaa !63
  store i64 0, ptr %13, align 8, !tbaa !74
  br label %20

20:                                               ; preds = %read_consume.exit, %12
  %21 = getelementptr inbounds nuw i8, ptr %7, i64 184
  %22 = load i64, ptr %21, align 8, !tbaa !86
  store i64 %22, ptr %3, align 8, !tbaa !38
  store i64 0, ptr %2, align 8, !tbaa !38
  store ptr null, ptr %1, align 8, !tbaa !111
  %23 = getelementptr inbounds nuw i8, ptr %7, i64 208
  %24 = load i8, ptr %23, align 8, !tbaa !87
  %.not54 = icmp eq i8 %24, 0
  br i1 %.not54, label %25, label %74

25:                                               ; preds = %20
  %26 = getelementptr inbounds nuw i8, ptr %7, i64 192
  %27 = load i64, ptr %26, align 8, !tbaa !109
  %spec.select = tail call i64 @llvm.umin.i64(i64 %27, i64 16777216)
  %28 = tail call fastcc i64 @read_stream(ptr noundef nonnull %0, ptr noundef nonnull %1, i64 noundef %spec.select, i64 noundef 0)
  %29 = icmp slt i64 %28, 0
  br i1 %29, label %30, label %32

30:                                               ; preds = %25
  %31 = trunc i64 %28 to i32
  br label %74

32:                                               ; preds = %25
  %33 = icmp eq i64 %28, 0
  br i1 %33, label %34, label %35

34:                                               ; preds = %32
  tail call void (ptr, i32, ptr, ...) @archive_set_error(ptr noundef nonnull %0, i32 noundef 84, ptr noundef nonnull @.str.17) #17
  br label %74

35:                                               ; preds = %32
  %36 = load i64, ptr %26, align 8, !tbaa !109
  %37 = sub i64 %36, %28
  store i64 %37, ptr %26, align 8, !tbaa !109
  %38 = icmp eq i64 %36, %28
  br i1 %38, label %39, label %40

39:                                               ; preds = %35
  store i8 1, ptr %23, align 8, !tbaa !87
  br label %40

40:                                               ; preds = %39, %35
  %41 = getelementptr inbounds nuw i8, ptr %7, i64 168
  %42 = load ptr, ptr %41, align 8, !tbaa !85
  %43 = getelementptr inbounds nuw i8, ptr %42, i64 24
  %44 = load i32, ptr %43, align 8, !tbaa !100
  %45 = and i32 %44, 8
  %.not55 = icmp eq i32 %45, 0
  br i1 %.not55, label %52, label %46

46:                                               ; preds = %40
  %47 = getelementptr inbounds nuw i8, ptr %7, i64 200
  %48 = load i64, ptr %47, align 8, !tbaa !88
  %49 = load ptr, ptr %1, align 8, !tbaa !111
  %50 = trunc i64 %28 to i32
  %51 = tail call i64 @cm_zlib_crc32(i64 noundef %48, ptr noundef %49, i32 noundef %50) #17
  store i64 %51, ptr %47, align 8, !tbaa !88
  br label %52

52:                                               ; preds = %46, %40
  %53 = load i8, ptr %23, align 8, !tbaa !87
  %.not56 = icmp eq i8 %53, 0
  br i1 %.not56, label %71, label %54

54:                                               ; preds = %52
  %55 = load ptr, ptr %41, align 8, !tbaa !85
  %56 = getelementptr inbounds nuw i8, ptr %55, i64 24
  %57 = load i32, ptr %56, align 8, !tbaa !100
  %58 = and i32 %57, 8
  %.not57 = icmp eq i32 %58, 0
  br i1 %.not57, label %71, label %59

59:                                               ; preds = %54
  %60 = getelementptr inbounds nuw i8, ptr %7, i64 96
  %61 = load ptr, ptr %60, align 8, !tbaa !113
  %62 = getelementptr inbounds nuw i8, ptr %55, i64 20
  %63 = load i32, ptr %62, align 4, !tbaa !107
  %64 = zext i32 %63 to i64
  %65 = getelementptr inbounds nuw i32, ptr %61, i64 %64
  %66 = load i32, ptr %65, align 4, !tbaa !76
  %67 = zext i32 %66 to i64
  %68 = getelementptr inbounds nuw i8, ptr %7, i64 200
  %69 = load i64, ptr %68, align 8, !tbaa !88
  %.not58 = icmp eq i64 %69, %67
  br i1 %.not58, label %71, label %70

70:                                               ; preds = %59
  tail call void (ptr, i32, ptr, ...) @archive_set_error(ptr noundef nonnull %0, i32 noundef -1, ptr noundef nonnull @.str.61, i64 noundef %69, i64 noundef %67) #17
  br label %71

71:                                               ; preds = %54, %59, %70, %52
  %.047 = phi i32 [ -20, %70 ], [ 0, %59 ], [ 0, %54 ], [ 0, %52 ]
  store i64 %28, ptr %2, align 8, !tbaa !38
  %72 = load i64, ptr %21, align 8, !tbaa !86
  store i64 %72, ptr %3, align 8, !tbaa !38
  %73 = add nsw i64 %72, %28
  store i64 %73, ptr %21, align 8, !tbaa !86
  br label %74

74:                                               ; preds = %30, %34, %71, %20
  %.048 = phi i32 [ 1, %20 ], [ %31, %30 ], [ -30, %34 ], [ %.047, %71 ]
  ret i32 %.048
}